; ModuleID = '9/47.c'
source_filename = "9/47.c"
target datalayout = "e-m:e-p270:32:32-p271:32:32-p272:64:64-i64:64-f80:128-n8:16:32:64-S128"
target triple = "x86_64-pc-linux-gnu"

%struct.anon = type { [10 x i8], i32, i32 }

@.str = private unnamed_addr constant [3 x i8] c"%d\00", align 1
@.str.1 = private unnamed_addr constant [5 x i8] c"%s%d\00", align 1
@.str.2 = private unnamed_addr constant [4 x i8] c"%s\0A\00", align 1

; Function Attrs: noinline nounwind uwtable
define dso_local void @main() #0 {
  %1 = alloca i32, align 4
  %2 = alloca i32, align 4
  %3 = alloca i32, align 4
  %4 = alloca [100 x %struct.anon], align 16
  %5 = alloca %struct.anon, align 4
  %6 = call i32 (i8*, ...) @__isoc99_scanf(i8* getelementptr inbounds ([3 x i8], [3 x i8]* @.str, i64 0, i64 0), i32* %1)
  store i32 1, i32* %2, align 4
  br label %7

7:                                                ; preds = %27, %0
  %8 = load i32, i32* %2, align 4
  %9 = load i32, i32* %1, align 4
  %10 = icmp sle i32 %8, %9
  br i1 %10, label %11, label %30

11:                                               ; preds = %7
  %12 = load i32, i32* %2, align 4
  %13 = sext i32 %12 to i64
  %14 = getelementptr inbounds [100 x %struct.anon], [100 x %struct.anon]* %4, i64 0, i64 %13
  %15 = getelementptr inbounds %struct.anon, %struct.anon* %14, i32 0, i32 0
  %16 = getelementptr inbounds [10 x i8], [10 x i8]* %15, i64 0, i64 0
  %17 = load i32, i32* %2, align 4
  %18 = sext i32 %17 to i64
  %19 = getelementptr inbounds [100 x %struct.anon], [100 x %struct.anon]* %4, i64 0, i64 %18
  %20 = getelementptr inbounds %struct.anon, %struct.anon* %19, i32 0, i32 1
  %21 = call i32 (i8*, ...) @__isoc99_scanf(i8* getelementptr inbounds ([5 x i8], [5 x i8]* @.str.1, i64 0, i64 0), i8* %16, i32* %20)
  %22 = load i32, i32* %2, align 4
  %23 = load i32, i32* %2, align 4
  %24 = sext i32 %23 to i64
  %25 = getelementptr inbounds [100 x %struct.anon], [100 x %struct.anon]* %4, i64 0, i64 %24
  %26 = getelementptr inbounds %struct.anon, %struct.anon* %25, i32 0, i32 2
  store i32 %22, i32* %26, align 4
  br label %27

27:                                               ; preds = %11
  %28 = load i32, i32* %2, align 4
  %29 = add nsw i32 %28, 1
  store i32 %29, i32* %2, align 4
  br label %7

30:                                               ; preds = %7
  store i32 1, i32* %2, align 4
  br label %31

31:                                               ; preds = %170, %30
  %32 = load i32, i32* %2, align 4
  %33 = load i32, i32* %1, align 4
  %34 = icmp slt i32 %32, %33
  br i1 %34, label %35, label %173

35:                                               ; preds = %31
  %36 = load i32, i32* %2, align 4
  %37 = add nsw i32 %36, 1
  store i32 %37, i32* %3, align 4
  br label %38

38:                                               ; preds = %166, %35
  %39 = load i32, i32* %3, align 4
  %40 = load i32, i32* %1, align 4
  %41 = icmp sle i32 %39, %40
  br i1 %41, label %42, label %169

42:                                               ; preds = %38
  %43 = load i32, i32* %2, align 4
  %44 = sext i32 %43 to i64
  %45 = getelementptr inbounds [100 x %struct.anon], [100 x %struct.anon]* %4, i64 0, i64 %44
  %46 = getelementptr inbounds %struct.anon, %struct.anon* %45, i32 0, i32 1
  %47 = load i32, i32* %46, align 4
  %48 = icmp slt i32 %47, 60
  br i1 %48, label %49, label %56

49:                                               ; preds = %42
  %50 = load i32, i32* %3, align 4
  %51 = sext i32 %50 to i64
  %52 = getelementptr inbounds [100 x %struct.anon], [100 x %struct.anon]* %4, i64 0, i64 %51
  %53 = getelementptr inbounds %struct.anon, %struct.anon* %52, i32 0, i32 1
  %54 = load i32, i32* %53, align 4
  %55 = icmp sge i32 %54, 60
  br i1 %55, label %146, label %56

56:                                               ; preds = %49, %42
  %57 = load i32, i32* %2, align 4
  %58 = sext i32 %57 to i64
  %59 = getelementptr inbounds [100 x %struct.anon], [100 x %struct.anon]* %4, i64 0, i64 %58
  %60 = getelementptr inbounds %struct.anon, %struct.anon* %59, i32 0, i32 1
  %61 = load i32, i32* %60, align 4
  %62 = icmp sge i32 %61, 60
  br i1 %62, label %63, label %82

63:                                               ; preds = %56
  %64 = load i32, i32* %3, align 4
  %65 = sext i32 %64 to i64
  %66 = getelementptr inbounds [100 x %struct.anon], [100 x %struct.anon]* %4, i64 0, i64 %65
  %67 = getelementptr inbounds %struct.anon, %struct.anon* %66, i32 0, i32 1
  %68 = load i32, i32* %67, align 4
  %69 = icmp sge i32 %68, 60
  br i1 %69, label %70, label %82

70:                                               ; preds = %63
  %71 = load i32, i32* %2, align 4
  %72 = sext i32 %71 to i64
  %73 = getelementptr inbounds [100 x %struct.anon], [100 x %struct.anon]* %4, i64 0, i64 %72
  %74 = getelementptr inbounds %struct.anon, %struct.anon* %73, i32 0, i32 1
  %75 = load i32, i32* %74, align 4
  %76 = load i32, i32* %3, align 4
  %77 = sext i32 %76 to i64
  %78 = getelementptr inbounds [100 x %struct.anon], [100 x %struct.anon]* %4, i64 0, i64 %77
  %79 = getelementptr inbounds %struct.anon, %struct.anon* %78, i32 0, i32 1
  %80 = load i32, i32* %79, align 4
  %81 = icmp slt i32 %75, %80
  br i1 %81, label %146, label %82

82:                                               ; preds = %70, %63, %56
  %83 = load i32, i32* %2, align 4
  %84 = sext i32 %83 to i64
  %85 = getelementptr inbounds [100 x %struct.anon], [100 x %struct.anon]* %4, i64 0, i64 %84
  %86 = getelementptr inbounds %struct.anon, %struct.anon* %85, i32 0, i32 1
  %87 = load i32, i32* %86, align 4
  %88 = icmp sge i32 %87, 60
  br i1 %88, label %89, label %120

89:                                               ; preds = %82
  %90 = load i32, i32* %3, align 4
  %91 = sext i32 %90 to i64
  %92 = getelementptr inbounds [100 x %struct.anon], [100 x %struct.anon]* %4, i64 0, i64 %91
  %93 = getelementptr inbounds %struct.anon, %struct.anon* %92, i32 0, i32 1
  %94 = load i32, i32* %93, align 4
  %95 = icmp sge i32 %94, 60
  br i1 %95, label %96, label %120

96:                                               ; preds = %89
  %97 = load i32, i32* %2, align 4
  %98 = sext i32 %97 to i64
  %99 = getelementptr inbounds [100 x %struct.anon], [100 x %struct.anon]* %4, i64 0, i64 %98
  %100 = getelementptr inbounds %struct.anon, %struct.anon* %99, i32 0, i32 1
  %101 = load i32, i32* %100, align 4
  %102 = load i32, i32* %3, align 4
  %103 = sext i32 %102 to i64
  %104 = getelementptr inbounds [100 x %struct.anon], [100 x %struct.anon]* %4, i64 0, i64 %103
  %105 = getelementptr inbounds %struct.anon, %struct.anon* %104, i32 0, i32 1
  %106 = load i32, i32* %105, align 4
  %107 = icmp eq i32 %101, %106
  br i1 %107, label %108, label %120

108:                                              ; preds = %96
  %109 = load i32, i32* %2, align 4
  %110 = sext i32 %109 to i64
  %111 = getelementptr inbounds [100 x %struct.anon], [100 x %struct.anon]* %4, i64 0, i64 %110
  %112 = getelementptr inbounds %struct.anon, %struct.anon* %111, i32 0, i32 2
  %113 = load i32, i32* %112, align 4
  %114 = load i32, i32* %3, align 4
  %115 = sext i32 %114 to i64
  %116 = getelementptr inbounds [100 x %struct.anon], [100 x %struct.anon]* %4, i64 0, i64 %115
  %117 = getelementptr inbounds %struct.anon, %struct.anon* %116, i32 0, i32 2
  %118 = load i32, i32* %117, align 4
  %119 = icmp sgt i32 %113, %118
  br i1 %119, label %146, label %120

120:                                              ; preds = %108, %96, %89, %82
  %121 = load i32, i32* %2, align 4
  %122 = sext i32 %121 to i64
  %123 = getelementptr inbounds [100 x %struct.anon], [100 x %struct.anon]* %4, i64 0, i64 %122
  %124 = getelementptr inbounds %struct.anon, %struct.anon* %123, i32 0, i32 1
  %125 = load i32, i32* %124, align 4
  %126 = icmp slt i32 %125, 60
  br i1 %126, label %127, label %165

127:                                              ; preds = %120
  %128 = load i32, i32* %3, align 4
  %129 = sext i32 %128 to i64
  %130 = getelementptr inbounds [100 x %struct.anon], [100 x %struct.anon]* %4, i64 0, i64 %129
  %131 = getelementptr inbounds %struct.anon, %struct.anon* %130, i32 0, i32 1
  %132 = load i32, i32* %131, align 4
  %133 = icmp slt i32 %132, 60
  br i1 %133, label %134, label %165

134:                                              ; preds = %127
  %135 = load i32, i32* %2, align 4
  %136 = sext i32 %135 to i64
  %137 = getelementptr inbounds [100 x %struct.anon], [100 x %struct.anon]* %4, i64 0, i64 %136
  %138 = getelementptr inbounds %struct.anon, %struct.anon* %137, i32 0, i32 2
  %139 = load i32, i32* %138, align 4
  %140 = load i32, i32* %3, align 4
  %141 = sext i32 %140 to i64
  %142 = getelementptr inbounds [100 x %struct.anon], [100 x %struct.anon]* %4, i64 0, i64 %141
  %143 = getelementptr inbounds %struct.anon, %struct.anon* %142, i32 0, i32 2
  %144 = load i32, i32* %143, align 4
  %145 = icmp sgt i32 %139, %144
  br i1 %145, label %146, label %165

146:                                              ; preds = %134, %108, %70, %49
  %147 = load i32, i32* %2, align 4
  %148 = sext i32 %147 to i64
  %149 = getelementptr inbounds [100 x %struct.anon], [100 x %struct.anon]* %4, i64 0, i64 %148
  %150 = bitcast %struct.anon* %5 to i8*
  %151 = bitcast %struct.anon* %149 to i8*
  call void @llvm.memcpy.p0i8.p0i8.i64(i8* align 4 %150, i8* align 4 %151, i64 20, i1 false)
  %152 = load i32, i32* %2, align 4
  %153 = sext i32 %152 to i64
  %154 = getelementptr inbounds [100 x %struct.anon], [100 x %struct.anon]* %4, i64 0, i64 %153
  %155 = load i32, i32* %3, align 4
  %156 = sext i32 %155 to i64
  %157 = getelementptr inbounds [100 x %struct.anon], [100 x %struct.anon]* %4, i64 0, i64 %156
  %158 = bitcast %struct.anon* %154 to i8*
  %159 = bitcast %struct.anon* %157 to i8*
  call void @llvm.memcpy.p0i8.p0i8.i64(i8* align 4 %158, i8* align 4 %159, i64 20, i1 false)
  %160 = load i32, i32* %3, align 4
  %161 = sext i32 %160 to i64
  %162 = getelementptr inbounds [100 x %struct.anon], [100 x %struct.anon]* %4, i64 0, i64 %161
  %163 = bitcast %struct.anon* %162 to i8*
  %164 = bitcast %struct.anon* %5 to i8*
  call void @llvm.memcpy.p0i8.p0i8.i64(i8* align 4 %163, i8* align 4 %164, i64 20, i1 false)
  br label %165

165:                                              ; preds = %146, %134, %127, %120
  br label %166

166:                                              ; preds = %165
  %167 = load i32, i32* %3, align 4
  %168 = add nsw i32 %167, 1
  store i32 %168, i32* %3, align 4
  br label %38

169:                                              ; preds = %38
  br label %170

170:                                              ; preds = %169
  %171 = load i32, i32* %2, align 4
  %172 = add nsw i32 %171, 1
  store i32 %172, i32* %2, align 4
  br label %31

173:                                              ; preds = %31
  store i32 1, i32* %2, align 4
  br label %174

174:                                              ; preds = %185, %173
  %175 = load i32, i32* %2, align 4
  %176 = load i32, i32* %1, align 4
  %177 = icmp sle i32 %175, %176
  br i1 %177, label %178, label %188

178:                                              ; preds = %174
  %179 = load i32, i32* %2, align 4
  %180 = sext i32 %179 to i64
  %181 = getelementptr inbounds [100 x %struct.anon], [100 x %struct.anon]* %4, i64 0, i64 %180
  %182 = getelementptr inbounds %struct.anon, %struct.anon* %181, i32 0, i32 0
  %183 = getelementptr inbounds [10 x i8], [10 x i8]* %182, i64 0, i64 0
  %184 = call i32 (i8*, ...) @printf(i8* getelementptr inbounds ([4 x i8], [4 x i8]* @.str.2, i64 0, i64 0), i8* %183)
  br label %185

185:                                              ; preds = %178
  %186 = load i32, i32* %2, align 4
  %187 = add nsw i32 %186, 1
  store i32 %187, i32* %2, align 4
  br label %174

188:                                              ; preds = %174
  ret void
}

declare dso_local i32 @__isoc99_scanf(i8*, ...) #1

; Function Attrs: argmemonly nounwind willreturn
declare void @llvm.memcpy.p0i8.p0i8.i64(i8* noalias nocapture writeonly, i8* noalias nocapture readonly, i64, i1 immarg) #2

declare dso_local i32 @printf(i8*, ...) #1


!llvm.module.flags = !{!0}
!llvm.ident = !{!1}

!0 = !{i32 1, !"wchar_size", i32 4}
!1 = !{!"clang version 10.0.0-4ubuntu1 "}
